; Function Attrs: mustprogress nounwind uwtable
define hidden noundef ptr @_ZN14ExceptionCache5matchE6HandlePh(ptr noundef nonnull align 8 dereferenceable(288) %0, ptr nocapture readonly %1, ptr noundef readnone %2) local_unnamed_addr #0 align 2 {
  %4 = load ptr, ptr %1, align 8
  %5 = load i8, ptr @UseCompressedClassPointers, align 1
  %6 = trunc i8 %5 to i1
  %7 = getelementptr inbounds i8, ptr %4, i64 8
  br i1 %6, label %8, label %18

8:                                                ; preds = %3
  %9 = load i32, ptr %7, align 8
  %10 = load ptr, ptr @_ZN23CompressedKlassPointers5_baseE, align 8
  %11 = load i32, ptr @_ZN23CompressedKlassPointers6_shiftE, align 4
  %12 = ptrtoint ptr %10 to i64
  %13 = zext i32 %9 to i64
  %14 = zext nneg i32 %11 to i64
  %15 = shl i64 %13, %14
  %16 = add i64 %15, %12
  %17 = inttoptr i64 %16 to ptr
  br label %_ZNK7oopDesc5klassEv.exit

18:                                               ; preds = %3
  %19 = load ptr, ptr %7, align 8
  br label %_ZNK7oopDesc5klassEv.exit

_ZNK7oopDesc5klassEv.exit:                        ; preds = %8, %18
  %.0.i = phi ptr [ %17, %8 ], [ %19, %18 ]
  %20 = load ptr, ptr %0, align 8
  %21 = icmp eq ptr %.0.i, %20
  br i1 %21, label %22, label %_ZN14ExceptionCache12test_addressEPh.exit

22:                                               ; preds = %_ZNK7oopDesc5klassEv.exit
  %23 = getelementptr inbounds i8, ptr %0, i64 264
  %24 = load volatile i32, ptr %23, align 8
  tail call void asm sideeffect "", "~{memory},~{dirflag},~{fpsr},~{flags}"() #23, !srcloc !6
  %25 = icmp sgt i32 %24, 0
  br i1 %25, label %.lr.ph.i, label %_ZN14ExceptionCache12test_addressEPh.exit

.lr.ph.i:                                         ; preds = %22
  %26 = getelementptr inbounds i8, ptr %0, i64 8
  %wide.trip.count.i = zext nneg i32 %24 to i64
  br label %28

27:                                               ; preds = %28
  %indvars.iv.next.i = add nuw nsw i64 %indvars.iv.i, 1
  %exitcond.not.i = icmp eq i64 %indvars.iv.next.i, %wide.trip.count.i
  br i1 %exitcond.not.i, label %_ZN14ExceptionCache12test_addressEPh.exit, label %28, !llvm.loop !7

28:                                               ; preds = %27, %.lr.ph.i
  %indvars.iv.i = phi i64 [ 0, %.lr.ph.i ], [ %indvars.iv.next.i, %27 ]
  %29 = getelementptr inbounds [16 x ptr], ptr %26, i64 0, i64 %indvars.iv.i
  %30 = load ptr, ptr %29, align 8
  %31 = icmp eq ptr %30, %2
  br i1 %31, label %32, label %27

32:                                               ; preds = %28
  %33 = getelementptr inbounds i8, ptr %0, i64 136
  %34 = getelementptr inbounds [16 x ptr], ptr %33, i64 0, i64 %indvars.iv.i
  %35 = load ptr, ptr %34, align 8
  br label %_ZN14ExceptionCache12test_addressEPh.exit

_ZN14ExceptionCache12test_addressEPh.exit:        ; preds = %27, %32, %22, %_ZNK7oopDesc5klassEv.exit
  %.0 = phi ptr [ null, %_ZNK7oopDesc5klassEv.exit ], [ %35, %32 ], [ null, %22 ], [ null, %27 ]
  ret ptr %.0
}